target datalayout = "e-m:e-p270:32:32-p271:32:32-p272:64:64-i64:64-i128:128-f80:128-n8:16:32:64-S128"
target triple = "x86_64-pc-linux-gnu"

%"class.(anonymous namespace)::CXXNameMangler" = type { ptr, ptr, i8, i8, i8, ptr, i32, i32, i32, %"class.(anonymous namespace)::CXXNameMangler::FunctionTypeDepthState", ptr, %"class.(anonymous namespace)::CXXNameMangler::AbiTagState", %"class.llvm::DenseMap.513", %"class.llvm::DenseMap.516" }
%"class.(anonymous namespace)::CXXNameMangler::FunctionTypeDepthState" = type { i32 }
%"class.(anonymous namespace)::CXXNameMangler::AbiTagState" = type { %"class.llvm::SmallVector.508", %"class.llvm::SmallVector.508", ptr, ptr }
%"class.llvm::SmallVector.508" = type { %"class.llvm::SmallVectorImpl.509", %"struct.llvm::SmallVectorStorage.512" }
%"class.llvm::SmallVectorImpl.509" = type { %"class.llvm::SmallVectorTemplateBase.510" }
%"class.llvm::SmallVectorTemplateBase.510" = type { %"class.llvm::SmallVectorTemplateCommon.511" }
%"class.llvm::SmallVectorTemplateCommon.511" = type { %"class.llvm::SmallVectorBase" }
%"class.llvm::SmallVectorBase" = type { ptr, i32, i32 }
%"struct.llvm::SmallVectorStorage.512" = type { [64 x i8] }
%"class.llvm::DenseMap.513" = type <{ ptr, i32, i32, i32, [4 x i8] }>
%"class.llvm::DenseMap.516" = type <{ ptr, i32, i32, i32, [4 x i8] }>
%"class.llvm::SmallVectorImpl.533" = type { %"class.llvm::SmallVectorTemplateBase.534" }
%"class.llvm::SmallVectorTemplateBase.534" = type { %"class.llvm::SmallVectorTemplateCommon.535" }
%"class.llvm::SmallVectorTemplateCommon.535" = type { %"class.llvm::SmallVectorBase.536" }
%"class.llvm::SmallVectorBase.536" = type { ptr, i64, i64 }
%"class.llvm::APInt" = type <{ %union.anon.667, i32, [4 x i8] }>
%union.anon.667 = type { i64 }
%"class.llvm::APFloat" = type { [8 x i8], %"union.llvm::APFloat::Storage" }
%"union.llvm::APFloat::Storage" = type { %"class.llvm::detail::DoubleAPFloat", [8 x i8] }
%"class.llvm::detail::DoubleAPFloat" = type { ptr, %"class.std::unique_ptr.721" }
%"class.std::unique_ptr.721" = type { %"struct.std::__uniq_ptr_data.722" }
%"struct.std::__uniq_ptr_data.722" = type { %"class.std::__uniq_ptr_impl.723" }
%"class.std::__uniq_ptr_impl.723" = type { %"class.std::tuple.724" }
%"class.std::tuple.724" = type { %"struct.std::_Tuple_impl.725" }
%"struct.std::_Tuple_impl.725" = type { %"struct.std::_Head_base.728" }
%"struct.std::_Head_base.728" = type { ptr }
%"class.llvm::SmallVector.1067" = type <{ %"class.llvm::SmallVectorImpl.533", %"struct.llvm::SmallVectorStorage.1068", [4 x i8] }>
%"struct.llvm::SmallVectorStorage.1068" = type { [20 x i8] }

@_ZZN12_GLOBAL__N_114CXXNameMangler11mangleFloatERKN4llvm7APFloatEE10charForHex = internal constant [16 x i8] c"0123456789abcdef", align 16

; Function Attrs: mustprogress nounwind uwtable
define linkonce_odr hidden noundef ptr @_ZNK4llvm25SmallVectorTemplateCommonIcvE10getFirstElEv(ptr noundef nonnull align 8 dereferenceable(24) %0) #0 comdat align 2 {
  %2 = alloca ptr, align 8
  store ptr %0, ptr %2, align 8
  %3 = load ptr, ptr %2, align 8
  %4 = getelementptr inbounds i8, ptr %3, i64 24
  ret ptr %4
}

; Function Attrs: mustprogress nounwind uwtable
define linkonce_odr hidden void @_ZN4llvm25SmallVectorTemplateCommonIcvEC2Em(ptr noundef nonnull align 8 dereferenceable(24) %0, i64 noundef %1) unnamed_addr #0 comdat align 2 {
  %3 = alloca ptr, align 8
  %4 = alloca i64, align 8
  store ptr %0, ptr %3, align 8
  store i64 %1, ptr %4, align 8
  %5 = load ptr, ptr %3, align 8
  %6 = call noundef ptr @_ZNK4llvm25SmallVectorTemplateCommonIcvE10getFirstElEv(ptr noundef nonnull align 8 dereferenceable(24) %5)
  %7 = load i64, ptr %4, align 8
  call void @_ZN4llvm15SmallVectorBaseImEC2EPvm(ptr noundef nonnull align 8 dereferenceable(24) %5, ptr noundef %6, i64 noundef %7)
  ret void
}

; Function Attrs: mustprogress nounwind uwtable
define linkonce_odr hidden noundef zeroext i1 @_ZNK4llvm25SmallVectorTemplateCommonIcvE7isSmallEv(ptr noundef nonnull align 8 dereferenceable(24) %0) #0 comdat align 2 {
  %2 = alloca ptr, align 8
  store ptr %0, ptr %2, align 8
  %3 = load ptr, ptr %2, align 8
  %4 = getelementptr inbounds nuw %"class.llvm::SmallVectorBase.536", ptr %3, i32 0, i32 0
  %5 = load ptr, ptr %4, align 8
  %6 = call noundef ptr @_ZNK4llvm25SmallVectorTemplateCommonIcvE10getFirstElEv(ptr noundef nonnull align 8 dereferenceable(24) %3)
  %7 = icmp eq ptr %5, %6
  ret i1 %7
}

; Function Attrs: mustprogress nounwind uwtable
define linkonce_odr hidden void @_ZN4llvm23SmallVectorTemplateBaseIcLb1EEC2Em(ptr noundef nonnull align 8 dereferenceable(24) %0, i64 noundef %1) unnamed_addr #0 comdat align 2 {
  %3 = alloca ptr, align 8
  %4 = alloca i64, align 8
  store ptr %0, ptr %3, align 8
  store i64 %1, ptr %4, align 8
  %5 = load ptr, ptr %3, align 8
  %6 = load i64, ptr %4, align 8
  call void @_ZN4llvm25SmallVectorTemplateCommonIcvEC2Em(ptr noundef nonnull align 8 dereferenceable(24) %5, i64 noundef %6)
  ret void
}

; Function Attrs: mustprogress nounwind uwtable
define linkonce_odr hidden noundef zeroext i1 @_ZNK4llvm5APInt12needsCleanupEv(ptr noundef nonnull align 8 dereferenceable(12) %0) #0 comdat align 2 {
  %2 = alloca ptr, align 8
  store ptr %0, ptr %2, align 8
  %3 = load ptr, ptr %2, align 8
  %4 = call noundef zeroext i1 @_ZNK4llvm5APInt12isSingleWordEv(ptr noundef nonnull align 8 dereferenceable(12) %3)
  %5 = xor i1 %4, true
  ret i1 %5
}

; Function Attrs: mustprogress nounwind uwtable
define linkonce_odr hidden void @_ZN4llvm15SmallVectorImplIcED2Ev(ptr noundef nonnull align 8 dereferenceable(24) %0) unnamed_addr #0 comdat align 2 {
  %2 = alloca ptr, align 8
  store ptr %0, ptr %2, align 8
  %3 = load ptr, ptr %2, align 8
  %4 = call noundef zeroext i1 @_ZNK4llvm25SmallVectorTemplateCommonIcvE7isSmallEv(ptr noundef nonnull align 8 dereferenceable(24) %3)
  br i1 %4, label %7, label %5

5:                                                ; preds = %1
  %6 = call noundef ptr @_ZN4llvm25SmallVectorTemplateCommonIcvE5beginEv(ptr noundef nonnull align 8 dereferenceable(24) %3)
  call void @free(ptr noundef %6) #15
  br label %7

7:                                                ; preds = %5, %1
  ret void
}

; Function Attrs: mustprogress nounwind uwtable
define linkonce_odr hidden void @_ZN4llvm23SmallVectorTemplateBaseIcLb1EE13destroy_rangeEPcS2_(ptr noundef %0, ptr noundef %1) #0 comdat align 2 {
  %3 = alloca ptr, align 8
  %4 = alloca ptr, align 8
  store ptr %0, ptr %3, align 8
  store ptr %1, ptr %4, align 8
  ret void
}

; Function Attrs: mustprogress nounwind uwtable
define linkonce_odr hidden noundef ptr @_ZN4llvm25SmallVectorTemplateCommonIcvE3endEv(ptr noundef nonnull align 8 dereferenceable(24) %0) #0 comdat align 2 {
  %2 = alloca ptr, align 8
  store ptr %0, ptr %2, align 8
  %3 = load ptr, ptr %2, align 8
  %4 = call noundef ptr @_ZN4llvm25SmallVectorTemplateCommonIcvE5beginEv(ptr noundef nonnull align 8 dereferenceable(24) %3)
  %5 = call noundef i64 @_ZNK4llvm15SmallVectorBaseImE4sizeEv(ptr noundef nonnull align 8 dereferenceable(24) %3)
  %6 = getelementptr inbounds i8, ptr %4, i64 %5
  ret ptr %6
}

; Function Attrs: mustprogress nounwind uwtable
define linkonce_odr hidden noundef ptr @_ZN4llvm25SmallVectorTemplateCommonIcvE5beginEv(ptr noundef nonnull align 8 dereferenceable(24) %0) #0 comdat align 2 {
  %2 = alloca ptr, align 8
  store ptr %0, ptr %2, align 8
  %3 = load ptr, ptr %2, align 8
  %4 = getelementptr inbounds nuw %"class.llvm::SmallVectorBase.536", ptr %3, i32 0, i32 0
  %5 = load ptr, ptr %4, align 8
  ret ptr %5
}

; Function Attrs: mustprogress nounwind uwtable
define linkonce_odr hidden noundef zeroext i1 @_ZNK4llvm5APInt12isSingleWordEv(ptr noundef nonnull align 8 dereferenceable(12) %0) #0 comdat align 2 {
  %2 = alloca ptr, align 8
  store ptr %0, ptr %2, align 8
  %3 = load ptr, ptr %2, align 8
  %4 = getelementptr inbounds nuw %"class.llvm::APInt", ptr %3, i32 0, i32 1
  %5 = load i32, ptr %4, align 8
  %6 = icmp ule i32 %5, 64
  ret i1 %6
}

; Function Attrs: mustprogress nounwind uwtable
define linkonce_odr hidden void @_ZN4llvm15SmallVectorImplIcE6resizeEm(ptr noundef nonnull align 8 dereferenceable(24) %0, i64 noundef %1) #0 comdat align 2 {
  %3 = alloca ptr, align 8
  %4 = alloca i64, align 8
  store ptr %0, ptr %3, align 8
  store i64 %1, ptr %4, align 8
  %5 = load ptr, ptr %3, align 8
  %6 = load i64, ptr %4, align 8
  call void @_ZN4llvm15SmallVectorImplIcE10resizeImplILb0EEEvm(ptr noundef nonnull align 8 dereferenceable(24) %5, i64 noundef %6)
  ret void
}

; Function Attrs: mustprogress nounwind uwtable
define linkonce_odr hidden void @_ZN4llvm15SmallVectorImplIcEC2Ej(ptr noundef nonnull align 8 dereferenceable(24) %0, i32 noundef %1) unnamed_addr #0 comdat align 2 {
  %3 = alloca ptr, align 8
  %4 = alloca i32, align 4
  store ptr %0, ptr %3, align 8
  store i32 %1, ptr %4, align 4
  %5 = load ptr, ptr %3, align 8
  %6 = load i32, ptr %4, align 4
  %7 = zext i32 %6 to i64
  call void @_ZN4llvm23SmallVectorTemplateBaseIcLb1EEC2Em(ptr noundef nonnull align 8 dereferenceable(24) %5, i64 noundef %7)
  ret void
}

; Function Attrs: mustprogress nounwind uwtable
define linkonce_odr hidden noundef zeroext i1 @_ZN4llvm7APFloat10usesLayoutINS_6detail13DoubleAPFloatEEEbRKNS_12fltSemanticsE(ptr noundef nonnull align 1 %0) #0 comdat align 2 {
  %2 = alloca ptr, align 8
  store ptr %0, ptr %2, align 8
  %3 = load ptr, ptr %2, align 8
  %4 = call noundef nonnull align 1 ptr @_ZN4llvm11APFloatBase15PPCDoubleDoubleEv() #21
  %5 = icmp eq ptr %3, %4
  ret i1 %5
}

; Function Attrs: mustprogress nounwind uwtable
define linkonce_odr hidden noundef zeroext i1 @_ZN4llvm7APFloat10usesLayoutINS_6detail9IEEEFloatEEEbRKNS_12fltSemanticsE(ptr noundef nonnull align 1 %0) #0 comdat align 2 {
  %2 = alloca ptr, align 8
  store ptr %0, ptr %2, align 8
  %3 = load ptr, ptr %2, align 8
  %4 = call noundef nonnull align 1 ptr @_ZN4llvm11APFloatBase15PPCDoubleDoubleEv() #21
  %5 = icmp ne ptr %3, %4
  ret i1 %5
}

; Function Attrs: mustprogress nounwind uwtable
define linkonce_odr hidden noundef nonnull align 1 ptr @_ZNK4llvm7APFloat12getSemanticsEv(ptr noundef nonnull align 8 dereferenceable(32) %0) #0 comdat align 2 {
  %2 = alloca ptr, align 8
  store ptr %0, ptr %2, align 8
  %3 = load ptr, ptr %2, align 8
  %4 = getelementptr inbounds nuw %"class.llvm::APFloat", ptr %3, i32 0, i32 1
  %5 = load ptr, ptr %4, align 8
  ret ptr %5
}

; Function Attrs: mustprogress nounwind uwtable
define linkonce_odr hidden void @_ZN4llvm5APIntD2Ev(ptr noundef nonnull align 8 dereferenceable(12) %0) unnamed_addr #0 comdat align 2 {
  %2 = alloca ptr, align 8
  store ptr %0, ptr %2, align 8
  %3 = load ptr, ptr %2, align 8
  %4 = call noundef zeroext i1 @_ZNK4llvm5APInt12needsCleanupEv(ptr noundef nonnull align 8 dereferenceable(12) %3)
  br i1 %4, label %5, label %11

5:                                                ; preds = %1
  %6 = getelementptr inbounds nuw %"class.llvm::APInt", ptr %3, i32 0, i32 0
  %7 = load ptr, ptr %6, align 8
  %8 = icmp eq ptr %7, null
  br i1 %8, label %10, label %9

9:                                                ; preds = %5
  call void @_ZdaPv(ptr noundef %7) #16
  br label %10

10:                                               ; preds = %9, %5
  br label %11

11:                                               ; preds = %10, %1
  ret void
}

; Function Attrs: mustprogress nounwind uwtable
define linkonce_odr hidden void @_ZN4llvm11SmallVectorIcLj20EED2Ev(ptr noundef nonnull align 8 dereferenceable(44) %0) unnamed_addr #0 comdat align 2 {
  %2 = alloca ptr, align 8
  store ptr %0, ptr %2, align 8
  %3 = load ptr, ptr %2, align 8
  %4 = call noundef ptr @_ZN4llvm25SmallVectorTemplateCommonIcvE5beginEv(ptr noundef nonnull align 8 dereferenceable(24) %3)
  %5 = call noundef ptr @_ZN4llvm25SmallVectorTemplateCommonIcvE3endEv(ptr noundef nonnull align 8 dereferenceable(24) %3)
  call void @_ZN4llvm23SmallVectorTemplateBaseIcLb1EE13destroy_rangeEPcS2_(ptr noundef %4, ptr noundef %5)
  call void @_ZN4llvm15SmallVectorImplIcED2Ev(ptr noundef nonnull align 8 dereferenceable(24) %3) #15
  ret void
}

; Function Attrs: mustprogress nounwind uwtable
define linkonce_odr hidden noundef ptr @_ZN4llvm25SmallVectorTemplateCommonIcvE4dataEv(ptr noundef nonnull align 8 dereferenceable(24) %0) #0 comdat align 2 {
  %2 = alloca ptr, align 8
  store ptr %0, ptr %2, align 8
  %3 = load ptr, ptr %2, align 8
  %4 = call noundef ptr @_ZN4llvm25SmallVectorTemplateCommonIcvE5beginEv(ptr noundef nonnull align 8 dereferenceable(24) %3)
  ret ptr %4
}

; Function Attrs: mustprogress nounwind uwtable
define linkonce_odr hidden noundef nonnull align 1 dereferenceable(1) ptr @_ZN4llvm25SmallVectorTemplateCommonIcvEixEm(ptr noundef nonnull align 8 dereferenceable(24) %0, i64 noundef %1) #0 comdat align 2 {
  %3 = alloca ptr, align 8
  %4 = alloca i64, align 8
  store ptr %0, ptr %3, align 8
  store i64 %1, ptr %4, align 8
  %5 = load ptr, ptr %3, align 8
  %6 = call noundef ptr @_ZN4llvm25SmallVectorTemplateCommonIcvE5beginEv(ptr noundef nonnull align 8 dereferenceable(24) %5)
  %7 = load i64, ptr %4, align 8
  %8 = getelementptr inbounds i8, ptr %6, i64 %7
  ret ptr %8
}

; Function Attrs: mustprogress nounwind uwtable
define linkonce_odr hidden noundef ptr @_ZNK4llvm5APInt10getRawDataEv(ptr noundef nonnull align 8 dereferenceable(12) %0) #0 comdat align 2 {
  %2 = alloca ptr, align 8
  %3 = alloca ptr, align 8
  store ptr %0, ptr %3, align 8
  %4 = load ptr, ptr %3, align 8
  %5 = call noundef zeroext i1 @_ZNK4llvm5APInt12isSingleWordEv(ptr noundef nonnull align 8 dereferenceable(12) %4)
  br i1 %5, label %6, label %8

6:                                                ; preds = %1
  %7 = getelementptr inbounds nuw %"class.llvm::APInt", ptr %4, i32 0, i32 0
  store ptr %7, ptr %2, align 8
  br label %12

8:                                                ; preds = %1
  %9 = getelementptr inbounds nuw %"class.llvm::APInt", ptr %4, i32 0, i32 0
  %10 = load ptr, ptr %9, align 8
  %11 = getelementptr inbounds i64, ptr %10, i64 0
  store ptr %11, ptr %2, align 8
  br label %12

12:                                               ; preds = %8, %6
  %13 = load ptr, ptr %2, align 8
  ret ptr %13
}

; Function Attrs: mustprogress nounwind uwtable
define linkonce_odr hidden void @_ZN4llvm11SmallVectorIcLj20EEC2Em(ptr noundef nonnull align 8 dereferenceable(44) %0, i64 noundef %1) unnamed_addr #0 comdat align 2 {
  %3 = alloca ptr, align 8
  %4 = alloca i64, align 8
  store ptr %0, ptr %3, align 8
  store i64 %1, ptr %4, align 8
  %5 = load ptr, ptr %3, align 8
  call void @_ZN4llvm15SmallVectorImplIcEC2Ej(ptr noundef nonnull align 8 dereferenceable(24) %5, i32 noundef 20)
  %6 = load i64, ptr %4, align 8
  call void @_ZN4llvm15SmallVectorImplIcE6resizeEm(ptr noundef nonnull align 8 dereferenceable(24) %5, i64 noundef %6)
  ret void
}

; Function Attrs: mustprogress nounwind uwtable
define linkonce_odr hidden noundef i32 @_ZNK4llvm5APInt11getBitWidthEv(ptr noundef nonnull align 8 dereferenceable(12) %0) #0 comdat align 2 {
  %2 = alloca ptr, align 8
  store ptr %0, ptr %2, align 8
  %3 = load ptr, ptr %2, align 8
  %4 = getelementptr inbounds nuw %"class.llvm::APInt", ptr %3, i32 0, i32 1
  %5 = load i32, ptr %4, align 8
  ret i32 %5
}

; Function Attrs: mustprogress nounwind uwtable
define linkonce_odr hidden void @_ZNK4llvm7APFloat14bitcastToAPIntEv(ptr dead_on_unwind noalias writable sret(%"class.llvm::APInt") align 8 %0, ptr noundef nonnull align 8 dereferenceable(32) %1) #0 comdat align 2 {
  %3 = alloca ptr, align 8
  %4 = alloca ptr, align 8
  store ptr %0, ptr %3, align 8
  store ptr %1, ptr %4, align 8
  %5 = load ptr, ptr %4, align 8
  br label %6

6:                                                ; preds = %2
  %7 = call noundef nonnull align 1 ptr @_ZNK4llvm7APFloat12getSemanticsEv(ptr noundef nonnull align 8 dereferenceable(32) %5)
  %8 = call noundef zeroext i1 @_ZN4llvm7APFloat10usesLayoutINS_6detail9IEEEFloatEEEbRKNS_12fltSemanticsE(ptr noundef nonnull align 1 %7)
  br i1 %8, label %9, label %11

9:                                                ; preds = %6
  %10 = getelementptr inbounds nuw %"class.llvm::APFloat", ptr %5, i32 0, i32 1
  call void @_ZNK4llvm6detail9IEEEFloat14bitcastToAPIntEv(ptr dead_on_unwind writable sret(%"class.llvm::APInt") align 8 %0, ptr noundef nonnull align 8 dereferenceable(24) %10)
  br label %18

11:                                               ; preds = %6
  %12 = call noundef nonnull align 1 ptr @_ZNK4llvm7APFloat12getSemanticsEv(ptr noundef nonnull align 8 dereferenceable(32) %5)
  %13 = call noundef zeroext i1 @_ZN4llvm7APFloat10usesLayoutINS_6detail13DoubleAPFloatEEEbRKNS_12fltSemanticsE(ptr noundef nonnull align 1 %12)
  br i1 %13, label %14, label %16

14:                                               ; preds = %11
  %15 = getelementptr inbounds nuw %"class.llvm::APFloat", ptr %5, i32 0, i32 1
  call void @_ZNK4llvm6detail13DoubleAPFloat14bitcastToAPIntEv(ptr dead_on_unwind writable sret(%"class.llvm::APInt") align 8 %0, ptr noundef nonnull align 8 dereferenceable(16) %15)
  br label %18

16:                                               ; preds = %11
  unreachable

17:                                               ; No predecessors!
  call void @llvm.trap()
  unreachable

18:                                               ; preds = %14, %9
  ret void
}

; Function Attrs: mustprogress nounwind uwtable
define internal void @_ZN12_GLOBAL__N_114CXXNameMangler11mangleFloatERKN4llvm7APFloatE(ptr noundef nonnull align 8 dereferenceable(280) %0, ptr noundef nonnull align 8 dereferenceable(32) %1) #0 align 2 {
  %3 = alloca ptr, align 8
  %4 = alloca ptr, align 8
  %5 = alloca %"class.llvm::APInt", align 8
  %6 = alloca i32, align 4
  %7 = alloca %"class.llvm::SmallVector.1067", align 8
  %8 = alloca i32, align 4
  %9 = alloca i32, align 4
  %10 = alloca i64, align 8
  store ptr %0, ptr %3, align 8
  store ptr %1, ptr %4, align 8
  %11 = load ptr, ptr %3, align 8
  %12 = load ptr, ptr %4, align 8
  call void @_ZNK4llvm7APFloat14bitcastToAPIntEv(ptr dead_on_unwind writable sret(%"class.llvm::APInt") align 8 %5, ptr noundef nonnull align 8 dereferenceable(32) %12)
  %13 = call noundef i32 @_ZNK4llvm5APInt11getBitWidthEv(ptr noundef nonnull align 8 dereferenceable(12) %5)
  %14 = add i32 %13, 3
  %15 = udiv i32 %14, 4
  store i32 %15, ptr %6, align 4
  %16 = load i32, ptr %6, align 4
  %17 = zext i32 %16 to i64
  call void @_ZN4llvm11SmallVectorIcLj20EEC2Em(ptr noundef nonnull align 8 dereferenceable(44) %7, i64 noundef %17)
  store i32 0, ptr %8, align 4
  br label %18

18:                                               ; preds = %47, %2
  %19 = load i32, ptr %8, align 4
  %20 = load i32, ptr %6, align 4
  %21 = icmp ne i32 %19, %20
  br i1 %21, label %22, label %50

22:                                               ; preds = %18
  %23 = load i32, ptr %6, align 4
  %24 = load i32, ptr %8, align 4
  %25 = sub i32 %23, %24
  %26 = sub i32 %25, 1
  %27 = mul i32 4, %26
  store i32 %27, ptr %9, align 4
  %28 = call noundef ptr @_ZNK4llvm5APInt10getRawDataEv(ptr noundef nonnull align 8 dereferenceable(12) %5)
  %29 = load i32, ptr %9, align 4
  %30 = udiv i32 %29, 64
  %31 = zext i32 %30 to i64
  %32 = getelementptr inbounds i64, ptr %28, i64 %31
  %33 = load i64, ptr %32, align 8
  store i64 %33, ptr %10, align 8
  %34 = load i32, ptr %9, align 4
  %35 = urem i32 %34, 64
  %36 = load i64, ptr %10, align 8
  %37 = zext i32 %35 to i64
  %38 = lshr i64 %36, %37
  store i64 %38, ptr %10, align 8
  %39 = load i64, ptr %10, align 8
  %40 = and i64 %39, 15
  store i64 %40, ptr %10, align 8
  %41 = load i64, ptr %10, align 8
  %42 = getelementptr inbounds [16 x i8], ptr @_ZZN12_GLOBAL__N_114CXXNameMangler11mangleFloatERKN4llvm7APFloatEE10charForHex, i64 0, i64 %41
  %43 = load i8, ptr %42, align 1
  %44 = load i32, ptr %8, align 4
  %45 = zext i32 %44 to i64
  %46 = call noundef nonnull align 1 dereferenceable(1) ptr @_ZN4llvm25SmallVectorTemplateCommonIcvEixEm(ptr noundef nonnull align 8 dereferenceable(24) %7, i64 noundef %45)
  store i8 %43, ptr %46, align 1
  br label %47

47:                                               ; preds = %22
  %48 = load i32, ptr %8, align 4
  %49 = add i32 %48, 1
  store i32 %49, ptr %8, align 4
  br label %18, !llvm.loop !50

50:                                               ; preds = %18
  %51 = getelementptr inbounds nuw %"class.(anonymous namespace)::CXXNameMangler", ptr %11, i32 0, i32 1
  %52 = load ptr, ptr %51, align 8
  %53 = call noundef ptr @_ZN4llvm25SmallVectorTemplateCommonIcvE4dataEv(ptr noundef nonnull align 8 dereferenceable(24) %7)
  %54 = load i32, ptr %6, align 4
  %55 = zext i32 %54 to i64
  %56 = call noundef nonnull align 8 dereferenceable(48) ptr @_ZN4llvm11raw_ostream5writeEPKcm(ptr noundef nonnull align 8 dereferenceable(48) %52, ptr noundef %53, i64 noundef %55)
  call void @_ZN4llvm11SmallVectorIcLj20EED2Ev(ptr noundef nonnull align 8 dereferenceable(44) %7) #15
  call void @_ZN4llvm5APIntD2Ev(ptr noundef nonnull align 8 dereferenceable(12) %5) #15
  ret void
}