; Function Attrs: mustprogress nounwind uwtable
define internal fastcc void @_ZN12_GLOBAL__N_114CXXNameMangler11mangleFloatERKN4llvm7APFloatE(ptr nocapture noundef nonnull readonly align 8 dereferenceable(280) %0, ptr noundef nonnull align 8 dereferenceable(32) %1) unnamed_addr #0 align 2 {
  %3 = alloca %"class.llvm::APInt", align 8
  %4 = alloca %"class.llvm::SmallVector.1067", align 8
  %5 = getelementptr inbounds nuw i8, ptr %1, i64 8
  %6 = load ptr, ptr %5, align 8, !noalias !122
  %7 = tail call noundef nonnull align 1 ptr @_ZN4llvm11APFloatBase15PPCDoubleDoubleEv() #28
  %.not.i = icmp eq ptr %6, %7
  br i1 %.not.i, label %9, label %8

8:                                                ; preds = %2
  call void @_ZNK4llvm6detail9IEEEFloat14bitcastToAPIntEv(ptr dead_on_unwind nonnull writable sret(%"class.llvm::APInt") align 8 %3, ptr noundef nonnull align 8 dereferenceable(24) %5) #24
  br label %_ZNK4llvm7APFloat14bitcastToAPIntEv.exit

9:                                                ; preds = %2
  call void @_ZNK4llvm6detail13DoubleAPFloat14bitcastToAPIntEv(ptr dead_on_unwind nonnull writable sret(%"class.llvm::APInt") align 8 %3, ptr noundef nonnull align 8 dereferenceable(16) %5) #24
  br label %_ZNK4llvm7APFloat14bitcastToAPIntEv.exit

_ZNK4llvm7APFloat14bitcastToAPIntEv.exit:         ; preds = %8, %9
  %10 = getelementptr inbounds nuw i8, ptr %3, i64 8
  %11 = load i32, ptr %10, align 8
  %12 = add i32 %11, 3
  %13 = lshr i32 %12, 2
  %14 = zext nneg i32 %13 to i64
  %15 = getelementptr inbounds i8, ptr %4, i64 24
  call void @_ZN4llvm15SmallVectorBaseImEC2EPvm(ptr noundef nonnull align 8 dereferenceable(24) %4, ptr noundef nonnull %15, i64 noundef 20) #24
  call void @_ZN4llvm15SmallVectorImplIcE10resizeImplILb0EEEvm(ptr noundef nonnull align 8 dereferenceable(24) %4, i64 noundef %14)
  %.not15 = icmp ult i32 %12, 4
  br i1 %.not15, label %._crit_edge, label %.lr.ph

.lr.ph:                                           ; preds = %_ZNK4llvm7APFloat14bitcastToAPIntEv.exit, %.lr.ph
  %indvars.iv = phi i64 [ %indvars.iv.next, %.lr.ph ], [ 0, %_ZNK4llvm7APFloat14bitcastToAPIntEv.exit ]
  %16 = trunc nuw nsw i64 %indvars.iv to i32
  %17 = xor i32 %16, -1
  %18 = add nsw i32 %13, %17
  %19 = shl i32 %18, 2
  %20 = load i32, ptr %10, align 8
  %21 = icmp ult i32 %20, 65
  %22 = load ptr, ptr %3, align 8
  %.0.i = select i1 %21, ptr %3, ptr %22
  %23 = lshr i32 %19, 6
  %24 = zext nneg i32 %23 to i64
  %25 = getelementptr inbounds i64, ptr %.0.i, i64 %24
  %26 = load i64, ptr %25, align 8
  %27 = and i32 %19, 60
  %28 = zext nneg i32 %27 to i64
  %29 = lshr i64 %26, %28
  %30 = and i64 %29, 15
  %31 = getelementptr inbounds [16 x i8], ptr @_ZZN12_GLOBAL__N_114CXXNameMangler11mangleFloatERKN4llvm7APFloatEE10charForHex, i64 0, i64 %30
  %32 = load i8, ptr %31, align 1
  %33 = load ptr, ptr %4, align 8
  %34 = getelementptr inbounds i8, ptr %33, i64 %indvars.iv
  store i8 %32, ptr %34, align 1
  %indvars.iv.next = add nuw nsw i64 %indvars.iv, 1
  %.not = icmp eq i64 %indvars.iv.next, %14
  br i1 %.not, label %._crit_edge, label %.lr.ph, !llvm.loop !125

._crit_edge:                                      ; preds = %.lr.ph, %_ZNK4llvm7APFloat14bitcastToAPIntEv.exit
  %35 = getelementptr inbounds nuw i8, ptr %0, i64 8
  %36 = load ptr, ptr %35, align 8
  %37 = load ptr, ptr %4, align 8
  %38 = call noundef nonnull align 8 dereferenceable(48) ptr @_ZN4llvm11raw_ostream5writeEPKcm(ptr noundef nonnull align 8 dereferenceable(48) %36, ptr noundef %37, i64 noundef %14) #24
  %39 = call noundef i64 @_ZNK4llvm15SmallVectorBaseImE4sizeEv(ptr noundef nonnull align 8 dereferenceable(24) %4) #24
  %40 = load ptr, ptr %4, align 8
  %41 = icmp eq ptr %40, %15
  br i1 %41, label %_ZN4llvm11SmallVectorIcLj20EED2Ev.exit, label %42

42:                                               ; preds = %._crit_edge
  call void @free(ptr noundef %40) #24
  br label %_ZN4llvm11SmallVectorIcLj20EED2Ev.exit

_ZN4llvm11SmallVectorIcLj20EED2Ev.exit:           ; preds = %._crit_edge, %42
  %43 = load i32, ptr %10, align 8
  %44 = icmp ugt i32 %43, 64
  br i1 %44, label %45, label %_ZN4llvm5APIntD2Ev.exit

45:                                               ; preds = %_ZN4llvm11SmallVectorIcLj20EED2Ev.exit
  %46 = load ptr, ptr %3, align 8
  %47 = icmp eq ptr %46, null
  br i1 %47, label %_ZN4llvm5APIntD2Ev.exit, label %48

48:                                               ; preds = %45
  call void @_ZdaPv(ptr noundef nonnull %46) #25
  br label %_ZN4llvm5APIntD2Ev.exit

_ZN4llvm5APIntD2Ev.exit:                          ; preds = %_ZN4llvm11SmallVectorIcLj20EED2Ev.exit, %45, %48
  ret void
}